target datalayout = "e-m:e-p270:32:32-p271:32:32-p272:64:64-i64:64-i128:128-f80:128-n8:16:32:64-S128"
target triple = "x86_64-pc-linux-gnu"

%struct.H5HF_hdr_t = type { %struct.H5C_cache_entry_t, i32, i32, i8, i8, i8, i8, %struct.H5HF_dtable_t, i64, i64, i32, i64, i64, %struct.H5O_pline_t, i64, i32, i64, i64, i64, i64, i64, i64, i64, i64, i64, i64, i64, i32, ptr, i64, i8, i8, i8, ptr, i32, ptr, %struct.H5HF_block_iter_t, ptr, i64, i8, i8, i64, i8, i8, i8, i8 }
%struct.H5C_cache_entry_t = type { ptr, i64, i64, ptr, i8, ptr, i8, i8, i8, i8, i32, i8, i8, i8, i8, i8, i32, ptr, i32, i32, i32, i32, i32, i8, i8, ptr, ptr, ptr, ptr, ptr, ptr, i8, i32, i8, i64, ptr, i64, i64, i32, i8, i32, i32, i8, ptr, ptr, ptr }
%struct.H5HF_dtable_t = type { %struct.H5HF_dtable_cparam_t, i64, i32, i32, i32, i32, i32, i32, i32, i64, ptr, ptr, ptr, ptr }
%struct.H5HF_dtable_cparam_t = type { i32, i64, i64, i32, i32 }
%struct.H5O_pline_t = type { %struct.H5O_shared_t, i32, i64, i64, ptr }
%struct.H5O_shared_t = type { i32, ptr, i32, %union.anon }
%union.anon = type { %struct.H5O_mesg_loc_t }
%struct.H5O_mesg_loc_t = type { i32, i64 }
%struct.H5HF_block_iter_t = type { i8, ptr }

@H5HF_init_g = external global i8, align 1
@H5_libterm_g = external global i8, align 1

; Function Attrs: nounwind uwtable
define void @H5HF__man_get_obj_off(ptr noundef %0, ptr noundef %1, ptr noundef %2) #0 {
  %4 = alloca ptr, align 8
  %5 = alloca ptr, align 8
  %6 = alloca ptr, align 8
  %7 = alloca i64, align 8
  store ptr %0, ptr %4, align 8, !tbaa !3
  store ptr %1, ptr %5, align 8, !tbaa !15
  store ptr %2, ptr %6, align 8, !tbaa !60
  %8 = load i8, ptr @H5HF_init_g, align 1, !tbaa !19, !range !21, !noundef !22
  %9 = trunc i8 %8 to i1
  br i1 %9, label %14, label %10

10:                                               ; preds = %3
  %11 = load i8, ptr @H5_libterm_g, align 1, !tbaa !19, !range !21, !noundef !22
  %12 = trunc i8 %11 to i1
  %13 = xor i1 %12, true
  br label %14

14:                                               ; preds = %10, %3
  %15 = phi i1 [ true, %3 ], [ %13, %10 ]
  %16 = xor i1 %15, true
  %17 = xor i1 %16, true
  %18 = zext i1 %17 to i32
  %19 = sext i32 %18 to i64
  %20 = call i64 @llvm.expect.i64(i64 %19, i64 1)
  %21 = icmp ne i64 %20, 0
  br i1 %21, label %22, label %63

22:                                               ; preds = %14
  %23 = load ptr, ptr %5, align 8, !tbaa !15
  %24 = getelementptr inbounds nuw i8, ptr %23, i32 1
  store ptr %24, ptr %5, align 8, !tbaa !15
  br label %25

25:                                               ; preds = %22
  call void @llvm.lifetime.start.p0(i64 8, ptr %7) #5
  %26 = load ptr, ptr %6, align 8, !tbaa !60
  store i64 0, ptr %26, align 8, !tbaa !8
  %27 = load ptr, ptr %4, align 8, !tbaa !3
  %28 = getelementptr inbounds nuw %struct.H5HF_hdr_t, ptr %27, i32 0, i32 43
  %29 = load i8, ptr %28, align 1, !tbaa !53
  %30 = zext i8 %29 to i32
  %31 = load ptr, ptr %5, align 8, !tbaa !15
  %32 = sext i32 %30 to i64
  %33 = getelementptr inbounds i8, ptr %31, i64 %32
  store ptr %33, ptr %5, align 8, !tbaa !15
  store i64 0, ptr %7, align 8, !tbaa !8
  br label %34

34:                                               ; preds = %51, %25
  %35 = load i64, ptr %7, align 8, !tbaa !8
  %36 = load ptr, ptr %4, align 8, !tbaa !3
  %37 = getelementptr inbounds nuw %struct.H5HF_hdr_t, ptr %36, i32 0, i32 43
  %38 = load i8, ptr %37, align 1, !tbaa !53
  %39 = zext i8 %38 to i64
  %40 = icmp ult i64 %35, %39
  br i1 %40, label %41, label %54

41:                                               ; preds = %34
  %42 = load ptr, ptr %6, align 8, !tbaa !60
  %43 = load i64, ptr %42, align 8, !tbaa !8
  %44 = shl i64 %43, 8
  %45 = load ptr, ptr %5, align 8, !tbaa !15
  %46 = getelementptr inbounds i8, ptr %45, i32 -1
  store ptr %46, ptr %5, align 8, !tbaa !15
  %47 = load i8, ptr %46, align 1, !tbaa !48
  %48 = zext i8 %47 to i64
  %49 = or i64 %44, %48
  %50 = load ptr, ptr %6, align 8, !tbaa !60
  store i64 %49, ptr %50, align 8, !tbaa !8
  br label %51

51:                                               ; preds = %41
  %52 = load i64, ptr %7, align 8, !tbaa !8
  %53 = add i64 %52, 1
  store i64 %53, ptr %7, align 8, !tbaa !8
  br label %34, !llvm.loop !62

54:                                               ; preds = %34
  %55 = load ptr, ptr %4, align 8, !tbaa !3
  %56 = getelementptr inbounds nuw %struct.H5HF_hdr_t, ptr %55, i32 0, i32 43
  %57 = load i8, ptr %56, align 1, !tbaa !53
  %58 = zext i8 %57 to i32
  %59 = load ptr, ptr %5, align 8, !tbaa !15
  %60 = sext i32 %58 to i64
  %61 = getelementptr inbounds i8, ptr %59, i64 %60
  store ptr %61, ptr %5, align 8, !tbaa !15
  call void @llvm.lifetime.end.p0(i64 8, ptr %7) #5
  br label %62

62:                                               ; preds = %54
  br label %63

63:                                               ; preds = %62, %14
  ret void
}