; Function Attrs: nofree norecurse nosync nounwind memory(read, argmem: readwrite, inaccessiblemem: none) uwtable
define void @H5HF__man_get_obj_off(ptr noundef readonly captures(none) %0, ptr noundef readonly captures(none) %1, ptr noundef writeonly captures(none) %2) local_unnamed_addr #4 {
  %4 = load i8, ptr @H5HF_init_g, align 1, !tbaa !10, !range !12, !noundef !13
  %5 = trunc nuw i8 %4 to i1
  %6 = load i8, ptr @H5_libterm_g, align 1, !range !12
  %7 = trunc nuw i8 %6 to i1
  %8 = xor i1 %7, true
  %9 = select i1 %5, i1 true, i1 %8
  br i1 %9, label %10, label %.loopexit, !prof !14

10:                                               ; preds = %3
  store i64 0, ptr %2, align 8, !tbaa !8
  %11 = getelementptr inbounds nuw i8, ptr %0, i64 697
  %12 = load i8, ptr %11, align 1, !tbaa !48
  %13 = zext i8 %12 to i64
  %.not = icmp eq i8 %12, 0
  br i1 %.not, label %.loopexit, label %.lr.ph

.lr.ph:                                           ; preds = %10
  %14 = getelementptr inbounds nuw i8, ptr %1, i64 1
  %15 = getelementptr inbounds nuw i8, ptr %14, i64 %13
  br label %16

16:                                               ; preds = %.lr.ph, %16
  %17 = phi i64 [ 0, %.lr.ph ], [ %22, %16 ]
  %.013 = phi i64 [ 0, %.lr.ph ], [ %23, %16 ]
  %.01112 = phi ptr [ %15, %.lr.ph ], [ %19, %16 ]
  %18 = shl i64 %17, 8
  %19 = getelementptr inbounds i8, ptr %.01112, i64 -1
  %20 = load i8, ptr %19, align 1, !tbaa !41
  %21 = zext i8 %20 to i64
  %22 = or disjoint i64 %18, %21
  store i64 %22, ptr %2, align 8, !tbaa !8
  %23 = add nuw nsw i64 %.013, 1
  %exitcond.not = icmp eq i64 %23, %13
  br i1 %exitcond.not, label %.loopexit, label %16, !llvm.loop !56

.loopexit:                                        ; preds = %16, %10, %3
  ret void
}